target datalayout = "e-m:e-p270:32:32-p271:32:32-p272:64:64-i64:64-i128:128-f80:128-n8:16:32:64-S128"
target triple = "x86_64-pc-linux-gnu"

%struct.sp_int = type { i16, i16, [129 x i64] }
%struct.sp_int_minimal = type { i16, i16, [1 x i64] }

; Function Attrs: nounwind uwtable
define internal void @_sp_zero(ptr noundef %0) #0 {
  %2 = alloca ptr, align 8
  %3 = alloca ptr, align 8
  store ptr %0, ptr %2, align 8, !tbaa !3
  call void @llvm.lifetime.start.p0(i64 8, ptr %3) #8
  %4 = load ptr, ptr %2, align 8, !tbaa !3
  store ptr %4, ptr %3, align 8, !tbaa !10
  %5 = load ptr, ptr %3, align 8, !tbaa !10
  %6 = getelementptr inbounds nuw %struct.sp_int_minimal, ptr %5, i32 0, i32 0
  store i16 0, ptr %6, align 8, !tbaa !20
  %7 = load ptr, ptr %3, align 8, !tbaa !10
  %8 = getelementptr inbounds nuw %struct.sp_int_minimal, ptr %7, i32 0, i32 2
  %9 = getelementptr inbounds [1 x i64], ptr %8, i64 0, i64 0
  store i64 0, ptr %9, align 8, !tbaa !16
  call void @llvm.lifetime.end.p0(i64 8, ptr %3) #8
  ret void
}

; Function Attrs: nounwind uwtable
define i32 @sp_rshb(ptr noundef %0, i32 noundef %1, ptr noundef %2) #0 {
  %4 = alloca ptr, align 8
  %5 = alloca i32, align 4
  %6 = alloca ptr, align 8
  %7 = alloca i32, align 4
  %8 = alloca i16, align 2
  %9 = alloca i16, align 2
  store ptr %0, ptr %4, align 8, !tbaa !3
  store i32 %1, ptr %5, align 4, !tbaa !8
  store ptr %2, ptr %6, align 8, !tbaa !3
  call void @llvm.lifetime.start.p0(i64 4, ptr %7) #8
  store i32 0, ptr %7, align 4, !tbaa !8
  call void @llvm.lifetime.start.p0(i64 2, ptr %8) #8
  %10 = load ptr, ptr %4, align 8, !tbaa !3
  %11 = icmp eq ptr %10, null
  br i1 %11, label %15, label %12

12:                                               ; preds = %3
  %13 = load i32, ptr %5, align 4, !tbaa !8
  %14 = icmp slt i32 %13, 0
  br i1 %14, label %15, label %16

15:                                               ; preds = %12, %3
  store i32 -98, ptr %7, align 4, !tbaa !8
  br label %178

16:                                               ; preds = %12
  %17 = load i32, ptr %5, align 4, !tbaa !8
  %18 = ashr i32 %17, 6
  %19 = trunc i32 %18 to i16
  store i16 %19, ptr %8, align 2, !tbaa !32
  %20 = zext i16 %19 to i32
  %21 = load ptr, ptr %4, align 8, !tbaa !3
  %22 = getelementptr inbounds nuw %struct.sp_int, ptr %21, i32 0, i32 0
  %23 = load i16, ptr %22, align 8, !tbaa !15
  %24 = zext i16 %23 to i32
  %25 = icmp sge i32 %20, %24
  br i1 %25, label %26, label %28

26:                                               ; preds = %16
  %27 = load ptr, ptr %6, align 8, !tbaa !3
  call void @_sp_zero(ptr noundef %27)
  br label %177

28:                                               ; preds = %16
  %29 = load i32, ptr %7, align 4, !tbaa !8
  %30 = icmp eq i32 %29, 0
  br i1 %30, label %31, label %45

31:                                               ; preds = %28
  %32 = load ptr, ptr %4, align 8, !tbaa !3
  %33 = getelementptr inbounds nuw %struct.sp_int, ptr %32, i32 0, i32 0
  %34 = load i16, ptr %33, align 8, !tbaa !15
  %35 = zext i16 %34 to i32
  %36 = load i16, ptr %8, align 2, !tbaa !32
  %37 = zext i16 %36 to i32
  %38 = sub nsw i32 %35, %37
  %39 = load ptr, ptr %6, align 8, !tbaa !3
  %40 = getelementptr inbounds nuw %struct.sp_int, ptr %39, i32 0, i32 1
  %41 = load i16, ptr %40, align 2, !tbaa !12
  %42 = zext i16 %41 to i32
  %43 = icmp sgt i32 %38, %42
  br i1 %43, label %44, label %45

44:                                               ; preds = %31
  store i32 -98, ptr %7, align 4, !tbaa !8
  br label %176

45:                                               ; preds = %31, %28
  %46 = load i32, ptr %7, align 4, !tbaa !8
  %47 = icmp eq i32 %46, 0
  br i1 %47, label %48, label %175

48:                                               ; preds = %45
  call void @llvm.lifetime.start.p0(i64 2, ptr %9) #8
  %49 = load i32, ptr %5, align 4, !tbaa !8
  %50 = and i32 %49, 63
  store i32 %50, ptr %5, align 4, !tbaa !8
  %51 = load i32, ptr %5, align 4, !tbaa !8
  %52 = icmp eq i32 %51, 0
  br i1 %52, label %53, label %102

53:                                               ; preds = %48
  %54 = load ptr, ptr %4, align 8, !tbaa !3
  %55 = getelementptr inbounds nuw %struct.sp_int, ptr %54, i32 0, i32 0
  %56 = load i16, ptr %55, align 8, !tbaa !15
  %57 = zext i16 %56 to i32
  %58 = load i16, ptr %8, align 2, !tbaa !32
  %59 = zext i16 %58 to i32
  %60 = sub nsw i32 %57, %59
  %61 = trunc i32 %60 to i16
  %62 = load ptr, ptr %6, align 8, !tbaa !3
  %63 = getelementptr inbounds nuw %struct.sp_int, ptr %62, i32 0, i32 0
  store i16 %61, ptr %63, align 8, !tbaa !15
  %64 = load ptr, ptr %6, align 8, !tbaa !3
  %65 = load ptr, ptr %4, align 8, !tbaa !3
  %66 = icmp eq ptr %64, %65
  br i1 %66, label %67, label %84

67:                                               ; preds = %53
  %68 = load ptr, ptr %6, align 8, !tbaa !3
  %69 = getelementptr inbounds nuw %struct.sp_int, ptr %68, i32 0, i32 2
  %70 = getelementptr inbounds [129 x i64], ptr %69, i64 0, i64 0
  %71 = load ptr, ptr %6, align 8, !tbaa !3
  %72 = getelementptr inbounds nuw %struct.sp_int, ptr %71, i32 0, i32 2
  %73 = getelementptr inbounds [129 x i64], ptr %72, i64 0, i64 0
  %74 = load i16, ptr %8, align 2, !tbaa !32
  %75 = zext i16 %74 to i32
  %76 = sext i32 %75 to i64
  %77 = getelementptr inbounds i64, ptr %73, i64 %76
  %78 = load ptr, ptr %6, align 8, !tbaa !3
  %79 = getelementptr inbounds nuw %struct.sp_int, ptr %78, i32 0, i32 0
  %80 = load i16, ptr %79, align 8, !tbaa !15
  %81 = zext i16 %80 to i32
  %82 = mul i32 8, %81
  %83 = zext i32 %82 to i64
  call void @llvm.memmove.p0.p0.i64(ptr align 8 %70, ptr align 8 %77, i64 %83, i1 false)
  br label %101

84:                                               ; preds = %53
  %85 = load ptr, ptr %6, align 8, !tbaa !3
  %86 = getelementptr inbounds nuw %struct.sp_int, ptr %85, i32 0, i32 2
  %87 = getelementptr inbounds [129 x i64], ptr %86, i64 0, i64 0
  %88 = load ptr, ptr %4, align 8, !tbaa !3
  %89 = getelementptr inbounds nuw %struct.sp_int, ptr %88, i32 0, i32 2
  %90 = getelementptr inbounds [129 x i64], ptr %89, i64 0, i64 0
  %91 = load i16, ptr %8, align 2, !tbaa !32
  %92 = zext i16 %91 to i32
  %93 = sext i32 %92 to i64
  %94 = getelementptr inbounds i64, ptr %90, i64 %93
  %95 = load ptr, ptr %6, align 8, !tbaa !3
  %96 = getelementptr inbounds nuw %struct.sp_int, ptr %95, i32 0, i32 0
  %97 = load i16, ptr %96, align 8, !tbaa !15
  %98 = zext i16 %97 to i32
  %99 = mul i32 8, %98
  %100 = zext i32 %99 to i64
  call void @llvm.memcpy.p0.p0.i64(ptr align 8 %87, ptr align 8 %94, i64 %100, i1 false)
  br label %101

101:                                              ; preds = %84, %67
  br label %174

102:                                              ; preds = %48
  store i16 0, ptr %9, align 2, !tbaa !32
  br label %103

103:                                              ; preds = %140, %102
  %104 = load i16, ptr %8, align 2, !tbaa !32
  %105 = zext i16 %104 to i32
  %106 = load ptr, ptr %4, align 8, !tbaa !3
  %107 = getelementptr inbounds nuw %struct.sp_int, ptr %106, i32 0, i32 0
  %108 = load i16, ptr %107, align 8, !tbaa !15
  %109 = zext i16 %108 to i32
  %110 = sub nsw i32 %109, 1
  %111 = icmp slt i32 %105, %110
  br i1 %111, label %112, label %145

112:                                              ; preds = %103
  %113 = load ptr, ptr %4, align 8, !tbaa !3
  %114 = getelementptr inbounds nuw %struct.sp_int, ptr %113, i32 0, i32 2
  %115 = load i16, ptr %8, align 2, !tbaa !32
  %116 = zext i16 %115 to i64
  %117 = getelementptr inbounds nuw [129 x i64], ptr %114, i64 0, i64 %116
  %118 = load i64, ptr %117, align 8, !tbaa !16
  %119 = load i32, ptr %5, align 4, !tbaa !8
  %120 = zext i32 %119 to i64
  %121 = lshr i64 %118, %120
  %122 = load ptr, ptr %4, align 8, !tbaa !3
  %123 = getelementptr inbounds nuw %struct.sp_int, ptr %122, i32 0, i32 2
  %124 = load i16, ptr %8, align 2, !tbaa !32
  %125 = zext i16 %124 to i32
  %126 = add nsw i32 %125, 1
  %127 = sext i32 %126 to i64
  %128 = getelementptr inbounds [129 x i64], ptr %123, i64 0, i64 %127
  %129 = load i64, ptr %128, align 8, !tbaa !16
  %130 = load i32, ptr %5, align 4, !tbaa !8
  %131 = sub nsw i32 64, %130
  %132 = zext i32 %131 to i64
  %133 = shl i64 %129, %132
  %134 = or i64 %121, %133
  %135 = load ptr, ptr %6, align 8, !tbaa !3
  %136 = getelementptr inbounds nuw %struct.sp_int, ptr %135, i32 0, i32 2
  %137 = load i16, ptr %9, align 2, !tbaa !32
  %138 = zext i16 %137 to i64
  %139 = getelementptr inbounds nuw [129 x i64], ptr %136, i64 0, i64 %138
  store i64 %134, ptr %139, align 8, !tbaa !16
  br label %140

140:                                              ; preds = %112
  %141 = load i16, ptr %8, align 2, !tbaa !32
  %142 = add i16 %141, 1
  store i16 %142, ptr %8, align 2, !tbaa !32
  %143 = load i16, ptr %9, align 2, !tbaa !32
  %144 = add i16 %143, 1
  store i16 %144, ptr %9, align 2, !tbaa !32
  br label %103, !llvm.loop !80

145:                                              ; preds = %103
  %146 = load ptr, ptr %4, align 8, !tbaa !3
  %147 = getelementptr inbounds nuw %struct.sp_int, ptr %146, i32 0, i32 2
  %148 = load i16, ptr %8, align 2, !tbaa !32
  %149 = zext i16 %148 to i64
  %150 = getelementptr inbounds nuw [129 x i64], ptr %147, i64 0, i64 %149
  %151 = load i64, ptr %150, align 8, !tbaa !16
  %152 = load i32, ptr %5, align 4, !tbaa !8
  %153 = zext i32 %152 to i64
  %154 = lshr i64 %151, %153
  %155 = load ptr, ptr %6, align 8, !tbaa !3
  %156 = getelementptr inbounds nuw %struct.sp_int, ptr %155, i32 0, i32 2
  %157 = load i16, ptr %9, align 2, !tbaa !32
  %158 = zext i16 %157 to i64
  %159 = getelementptr inbounds nuw [129 x i64], ptr %156, i64 0, i64 %158
  store i64 %154, ptr %159, align 8, !tbaa !16
  %160 = load i16, ptr %9, align 2, !tbaa !32
  %161 = zext i16 %160 to i32
  %162 = load ptr, ptr %6, align 8, !tbaa !3
  %163 = getelementptr inbounds nuw %struct.sp_int, ptr %162, i32 0, i32 2
  %164 = load i16, ptr %9, align 2, !tbaa !32
  %165 = zext i16 %164 to i64
  %166 = getelementptr inbounds nuw [129 x i64], ptr %163, i64 0, i64 %165
  %167 = load i64, ptr %166, align 8, !tbaa !16
  %168 = icmp ugt i64 %167, 0
  %169 = zext i1 %168 to i32
  %170 = add nsw i32 %161, %169
  %171 = trunc i32 %170 to i16
  %172 = load ptr, ptr %6, align 8, !tbaa !3
  %173 = getelementptr inbounds nuw %struct.sp_int, ptr %172, i32 0, i32 0
  store i16 %171, ptr %173, align 8, !tbaa !15
  br label %174

174:                                              ; preds = %145, %101
  call void @llvm.lifetime.end.p0(i64 2, ptr %9) #8
  br label %175

175:                                              ; preds = %174, %45
  br label %176

176:                                              ; preds = %175, %44
  br label %177

177:                                              ; preds = %176, %26
  br label %178

178:                                              ; preds = %177, %15
  %179 = load i32, ptr %7, align 4, !tbaa !8
  call void @llvm.lifetime.end.p0(i64 2, ptr %8) #8
  call void @llvm.lifetime.end.p0(i64 4, ptr %7) #8
  ret i32 %179
}