; Function Attrs: nofree norecurse nosync nounwind memory(argmem: readwrite) uwtable
define range(i32 -98, 1) i32 @sp_rshb(ptr noundef readonly captures(address) %0, i32 noundef %1, ptr noundef captures(address) %2) local_unnamed_addr #8 {
  %4 = icmp eq ptr %0, null
  %5 = icmp slt i32 %1, 0
  %or.cond = or i1 %4, %5
  br i1 %or.cond, label %74, label %6

6:                                                ; preds = %3
  %7 = lshr i32 %1, 6
  %8 = trunc i32 %7 to i16
  %9 = and i32 %7, 65535
  %10 = load i16, ptr %0, align 8, !tbaa !12
  %11 = zext i16 %10 to i32
  %.not = icmp samesign ult i32 %9, %11
  br i1 %.not, label %14, label %12

12:                                               ; preds = %6
  store i16 0, ptr %2, align 8, !tbaa !3
  %13 = getelementptr inbounds nuw i8, ptr %2, i64 8
  store i64 0, ptr %13, align 8, !tbaa !8
  br label %74

14:                                               ; preds = %6
  %15 = sub nuw nsw i32 %11, %9
  %16 = getelementptr inbounds nuw i8, ptr %2, i64 2
  %17 = load i16, ptr %16, align 2, !tbaa !10
  %18 = zext i16 %17 to i32
  %19 = icmp samesign ugt i32 %15, %18
  br i1 %19, label %74, label %20

20:                                               ; preds = %14
  %21 = and i32 %1, 63
  %22 = icmp eq i32 %21, 0
  br i1 %22, label %30, label %.preheader

.preheader:                                       ; preds = %20
  %23 = add nsw i32 %11, -1
  %24 = icmp samesign ugt i32 %23, %9
  br i1 %24, label %.lr.ph, label %.preheader.._crit_edge_crit_edge

.preheader.._crit_edge_crit_edge:                 ; preds = %.preheader
  %.pre = zext nneg i32 %21 to i64
  br label %._crit_edge

.lr.ph:                                           ; preds = %.preheader
  %25 = getelementptr inbounds nuw i8, ptr %0, i64 8
  %26 = zext nneg i32 %21 to i64
  %27 = sub nuw nsw i32 64, %21
  %28 = zext nneg i32 %27 to i64
  %29 = getelementptr inbounds nuw i8, ptr %2, i64 8
  br label %45

30:                                               ; preds = %20
  %31 = sub i16 %10, %8
  store i16 %31, ptr %2, align 8, !tbaa !12
  %32 = icmp eq ptr %2, %0
  %33 = getelementptr inbounds nuw i8, ptr %2, i64 8
  br i1 %32, label %34, label %39

34:                                               ; preds = %30
  %35 = zext nneg i32 %9 to i64
  %36 = getelementptr inbounds nuw i64, ptr %33, i64 %35
  %37 = zext i16 %31 to i64
  %38 = shl nuw nsw i64 %37, 3
  tail call void @llvm.memmove.p0.p0.i64(ptr nonnull align 8 %33, ptr nonnull align 8 %36, i64 %38, i1 false)
  br label %74

39:                                               ; preds = %30
  %40 = getelementptr inbounds nuw i8, ptr %0, i64 8
  %41 = zext nneg i32 %9 to i64
  %42 = getelementptr inbounds nuw i64, ptr %40, i64 %41
  %43 = zext i16 %31 to i64
  %44 = shl nuw nsw i64 %43, 3
  tail call void @llvm.memcpy.p0.p0.i64(ptr nonnull align 8 %33, ptr nonnull align 8 %42, i64 %44, i1 false)
  br label %74

45:                                               ; preds = %.lr.ph, %45
  %46 = phi i32 [ %9, %.lr.ph ], [ %61, %45 ]
  %.057 = phi i16 [ 0, %.lr.ph ], [ %60, %45 ]
  %.04756 = phi i16 [ %8, %.lr.ph ], [ %59, %45 ]
  %47 = zext i16 %.04756 to i64
  %48 = getelementptr inbounds nuw [129 x i64], ptr %25, i64 0, i64 %47
  %49 = load i64, ptr %48, align 8, !tbaa !8
  %50 = lshr i64 %49, %26
  %51 = add nuw nsw i32 %46, 1
  %52 = zext nneg i32 %51 to i64
  %53 = getelementptr inbounds nuw [129 x i64], ptr %25, i64 0, i64 %52
  %54 = load i64, ptr %53, align 8, !tbaa !8
  %55 = shl i64 %54, %28
  %56 = or i64 %55, %50
  %57 = zext i16 %.057 to i64
  %58 = getelementptr inbounds nuw [129 x i64], ptr %29, i64 0, i64 %57
  store i64 %56, ptr %58, align 8, !tbaa !8
  %59 = add i16 %.04756, 1
  %60 = add i16 %.057, 1
  %61 = zext i16 %59 to i32
  %62 = icmp samesign ugt i32 %23, %61
  br i1 %62, label %45, label %._crit_edge, !llvm.loop !59

._crit_edge:                                      ; preds = %45, %.preheader.._crit_edge_crit_edge
  %.pre-phi = phi i64 [ %.pre, %.preheader.._crit_edge_crit_edge ], [ %26, %45 ]
  %.047.lcssa = phi i16 [ %8, %.preheader.._crit_edge_crit_edge ], [ %59, %45 ]
  %.0.lcssa = phi i16 [ 0, %.preheader.._crit_edge_crit_edge ], [ %60, %45 ]
  %63 = getelementptr inbounds nuw i8, ptr %0, i64 8
  %64 = zext i16 %.047.lcssa to i64
  %65 = getelementptr inbounds nuw [129 x i64], ptr %63, i64 0, i64 %64
  %66 = load i64, ptr %65, align 8, !tbaa !8
  %67 = lshr i64 %66, %.pre-phi
  %68 = getelementptr inbounds nuw i8, ptr %2, i64 8
  %69 = zext i16 %.0.lcssa to i64
  %70 = getelementptr inbounds nuw [129 x i64], ptr %68, i64 0, i64 %69
  store i64 %67, ptr %70, align 8, !tbaa !8
  %71 = icmp ne i64 %67, 0
  %72 = zext i1 %71 to i16
  %73 = add i16 %.0.lcssa, %72
  store i16 %73, ptr %2, align 8, !tbaa !12
  br label %74

74:                                               ; preds = %._crit_edge, %39, %34, %14, %3, %12
  %.048 = phi i32 [ 0, %12 ], [ -98, %3 ], [ -98, %14 ], [ 0, %34 ], [ 0, %39 ], [ 0, %._crit_edge ]
  ret i32 %.048
}